; ModuleID = 'source-C-CXX/51/1584.c'
source_filename = "source-C-CXX/51/1584.c"
target datalayout = "e-m:e-p270:32:32-p271:32:32-p272:64:64-i64:64-f80:128-n8:16:32:64-S128"
target triple = "x86_64-pc-linux-gnu"

@.str = private unnamed_addr constant [6 x i8] c"%d %d\00", align 1
@.str.1 = private unnamed_addr constant [3 x i8] c"%d\00", align 1
@.str.2 = private unnamed_addr constant [4 x i8] c"%d \00", align 1

; Function Attrs: nofree nounwind sspstrong uwtable
define dso_local i32 @main() local_unnamed_addr #0 {
  %1 = alloca [100 x i32], align 16
  %2 = alloca i32, align 4
  %3 = alloca i32, align 4
  %4 = bitcast [100 x i32]* %1 to i8*
  call void @llvm.lifetime.start.p0i8(i64 400, i8* nonnull %4) #3
  %5 = bitcast i32* %2 to i8*
  call void @llvm.lifetime.start.p0i8(i64 4, i8* nonnull %5) #3
  %6 = bitcast i32* %3 to i8*
  call void @llvm.lifetime.start.p0i8(i64 4, i8* nonnull %6) #3
  %7 = getelementptr inbounds [100 x i32], [100 x i32]* %1, i64 0, i64 0
  %8 = call i32 (i8*, ...) @__isoc99_scanf(i8* getelementptr inbounds ([6 x i8], [6 x i8]* @.str, i64 0, i64 0), i32* nonnull %2, i32* nonnull %3)
  %9 = load i32, i32* %2, align 4, !tbaa !5
  %10 = icmp sgt i32 %9, 0
  br i1 %10, label %11, label %19

11:                                               ; preds = %0, %11
  %12 = phi i32 [ %16, %11 ], [ 0, %0 ]
  %13 = phi i32* [ %14, %11 ], [ %7, %0 ]
  %14 = getelementptr inbounds i32, i32* %13, i64 1
  %15 = call i32 (i8*, ...) @__isoc99_scanf(i8* getelementptr inbounds ([3 x i8], [3 x i8]* @.str.1, i64 0, i64 0), i32* nonnull %13)
  %16 = add nuw nsw i32 %12, 1
  %17 = load i32, i32* %2, align 4, !tbaa !5
  %18 = icmp slt i32 %16, %17
  br i1 %18, label %11, label %19, !llvm.loop !9

19:                                               ; preds = %11, %0
  %20 = phi i32 [ %9, %0 ], [ %17, %11 ]
  %21 = load i32, i32* %3, align 4, !tbaa !5
  %22 = icmp sgt i32 %21, 0
  br i1 %22, label %23, label %31

23:                                               ; preds = %19
  %24 = sext i32 %20 to i64
  %25 = getelementptr inbounds [100 x i32], [100 x i32]* %1, i64 0, i64 %24
  %26 = zext i32 %21 to i64
  %27 = sub nsw i64 0, %26
  %28 = getelementptr inbounds i32, i32* %25, i64 %27
  br label %37

29:                                               ; preds = %37
  %30 = load i32, i32* %2, align 4, !tbaa !5
  br label %31

31:                                               ; preds = %29, %19
  %32 = phi i32 [ %44, %29 ], [ %21, %19 ]
  %33 = phi i32 [ %30, %29 ], [ %20, %19 ]
  %34 = xor i32 %32, -1
  %35 = add i32 %33, %34
  %36 = icmp sgt i32 %35, 0
  br i1 %36, label %46, label %58

37:                                               ; preds = %23, %37
  %38 = phi i32 [ %42, %37 ], [ 0, %23 ]
  %39 = phi i32* [ %43, %37 ], [ %28, %23 ]
  %40 = load i32, i32* %39, align 4, !tbaa !5
  %41 = call i32 (i8*, ...) @printf(i8* nonnull dereferenceable(1) getelementptr inbounds ([4 x i8], [4 x i8]* @.str.2, i64 0, i64 0), i32 %40)
  %42 = add nuw nsw i32 %38, 1
  %43 = getelementptr inbounds i32, i32* %39, i64 1
  %44 = load i32, i32* %3, align 4, !tbaa !5
  %45 = icmp slt i32 %42, %44
  br i1 %45, label %37, label %29, !llvm.loop !11

46:                                               ; preds = %31, %46
  %47 = phi i32 [ %51, %46 ], [ 0, %31 ]
  %48 = phi i32* [ %52, %46 ], [ %7, %31 ]
  %49 = load i32, i32* %48, align 4, !tbaa !5
  %50 = call i32 (i8*, ...) @printf(i8* nonnull dereferenceable(1) getelementptr inbounds ([4 x i8], [4 x i8]* @.str.2, i64 0, i64 0), i32 %49)
  %51 = add nuw nsw i32 %47, 1
  %52 = getelementptr inbounds i32, i32* %48, i64 1
  %53 = load i32, i32* %2, align 4, !tbaa !5
  %54 = load i32, i32* %3, align 4, !tbaa !5
  %55 = xor i32 %54, -1
  %56 = add i32 %53, %55
  %57 = icmp slt i32 %51, %56
  br i1 %57, label %46, label %58, !llvm.loop !12

58:                                               ; preds = %46, %31
  %59 = phi i32* [ %7, %31 ], [ %52, %46 ]
  %60 = load i32, i32* %59, align 4, !tbaa !5
  %61 = call i32 (i8*, ...) @printf(i8* nonnull dereferenceable(1) getelementptr inbounds ([3 x i8], [3 x i8]* @.str.1, i64 0, i64 0), i32 %60)
  call void @llvm.lifetime.end.p0i8(i64 4, i8* nonnull %6) #3
  call void @llvm.lifetime.end.p0i8(i64 4, i8* nonnull %5) #3
  call void @llvm.lifetime.end.p0i8(i64 400, i8* nonnull %4) #3
  ret i32 0
}

; Function Attrs: argmemonly mustprogress nofree nosync nounwind willreturn
declare void @llvm.lifetime.start.p0i8(i64 immarg, i8* nocapture) #1

; Function Attrs: nofree nounwind
declare noundef i32 @__isoc99_scanf(i8* nocapture noundef readonly, ...) local_unnamed_addr #2

; Function Attrs: nofree nounwind
declare noundef i32 @printf(i8* nocapture noundef readonly, ...) local_unnamed_addr #2

; Function Attrs: argmemonly mustprogress nofree nosync nounwind willreturn
declare void @llvm.lifetime.end.p0i8(i64 immarg, i8* nocapture) #1


!llvm.module.flags = !{!0, !1, !2, !3}
!llvm.ident = !{!4}

!0 = !{i32 1, !"wchar_size", i32 4}
!1 = !{i32 7, !"PIC Level", i32 2}
!2 = !{i32 7, !"PIE Level", i32 2}
!3 = !{i32 7, !"uwtable", i32 1}
!4 = !{!"clang version 13.0.0"}
!5 = !{!6, !6, i64 0}
!6 = !{!"int", !7, i64 0}
!7 = !{!"omnipotent char", !8, i64 0}
!8 = !{!"Simple C/C++ TBAA"}
!9 = distinct !{!9, !10}
!10 = !{!"llvm.loop.mustprogress"}
!11 = distinct !{!11, !10}
!12 = distinct !{!12, !10}
